target datalayout = "e-m:e-p270:32:32-p271:32:32-p272:64:64-i64:64-i128:128-f80:128-n8:16:32:64-S128"
target triple = "x86_64-pc-linux-gnu"

%struct.DdManager = type { %struct.DdNode, ptr, ptr, ptr, ptr, ptr, ptr, ptr, i32, i32, double, double, double, i32, i32, i32, i32, i32, i32, ptr, ptr, %struct.DdSubtable, i32, i32, i32, i32, i32, i32, i32, double, i32, i32, i32, ptr, i64, double, i32, ptr, ptr, ptr, ptr, ptr, ptr, ptr, i32, ptr, ptr, ptr, ptr, ptr, ptr, i32, i32, i32, double, i32, i32, i32, i32, double, double, i32, i32, i32, i32, i32, i32, i32, i32, i32, ptr, ptr, i32, i32, i32, i32, i32, i32, ptr, ptr, ptr, ptr, ptr, ptr, ptr, ptr, i32, i64, i64, i64, i32, i64, i64, double, double, double, double, double, double, i32, ptr, ptr, i64 }
%struct.DdNode = type { i32, i32, ptr, %union.anon, i64 }
%union.anon = type { %struct.DdChildren }
%struct.DdChildren = type { ptr, ptr }
%struct.DdSubtable = type { ptr, i32, i32, i32, i32, i32, i32, i32, i32, i32, i32, i32 }
%struct.Extra_UnateInfo_t_ = type { i32, i32, i32, ptr }
%struct.Extra_UnateVar_t_ = type { i32 }

; Function Attrs: nounwind uwtable
define ptr @Extra_UnateInfoAllocate(i32 noundef %0) #0 {
  %2 = alloca i32, align 4
  %3 = alloca ptr, align 8
  store i32 %0, ptr %2, align 4, !tbaa !31
  call void @llvm.lifetime.start.p0(i64 8, ptr %3) #6
  %4 = call noalias ptr @malloc(i64 noundef 24) #7
  store ptr %4, ptr %3, align 8, !tbaa !10
  %5 = load ptr, ptr %3, align 8, !tbaa !10
  call void @llvm.memset.p0.i64(ptr align 8 %5, i8 0, i64 24, i1 false)
  %6 = load i32, ptr %2, align 4, !tbaa !31
  %7 = load ptr, ptr %3, align 8, !tbaa !10
  %8 = getelementptr inbounds nuw %struct.Extra_UnateInfo_t_, ptr %7, i32 0, i32 0
  store i32 %6, ptr %8, align 8, !tbaa !50
  %9 = load i32, ptr %2, align 4, !tbaa !31
  %10 = sext i32 %9 to i64
  %11 = mul i64 4, %10
  %12 = call noalias ptr @malloc(i64 noundef %11) #7
  %13 = load ptr, ptr %3, align 8, !tbaa !10
  %14 = getelementptr inbounds nuw %struct.Extra_UnateInfo_t_, ptr %13, i32 0, i32 3
  store ptr %12, ptr %14, align 8, !tbaa !39
  %15 = load ptr, ptr %3, align 8, !tbaa !10
  %16 = getelementptr inbounds nuw %struct.Extra_UnateInfo_t_, ptr %15, i32 0, i32 3
  %17 = load ptr, ptr %16, align 8, !tbaa !39
  %18 = load i32, ptr %2, align 4, !tbaa !31
  %19 = sext i32 %18 to i64
  %20 = mul i64 %19, 4
  call void @llvm.memset.p0.i64(ptr align 4 %17, i8 0, i64 %20, i1 false)
  %21 = load ptr, ptr %3, align 8, !tbaa !10
  call void @llvm.lifetime.end.p0(i64 8, ptr %3) #6
  ret ptr %21
}

; Function Attrs: nounwind uwtable
define ptr @Extra_UnateComputeSlow(ptr noundef %0, ptr noundef %1) #0 {
  %3 = alloca ptr, align 8
  %4 = alloca ptr, align 8
  %5 = alloca i32, align 4
  %6 = alloca ptr, align 8
  %7 = alloca ptr, align 8
  %8 = alloca ptr, align 8
  %9 = alloca i32, align 4
  %10 = alloca i32, align 4
  store ptr %0, ptr %3, align 8, !tbaa !3
  store ptr %1, ptr %4, align 8, !tbaa !8
  call void @llvm.lifetime.start.p0(i64 4, ptr %5) #6
  call void @llvm.lifetime.start.p0(i64 8, ptr %6) #6
  call void @llvm.lifetime.start.p0(i64 8, ptr %7) #6
  call void @llvm.lifetime.start.p0(i64 8, ptr %8) #6
  call void @llvm.lifetime.start.p0(i64 4, ptr %9) #6
  call void @llvm.lifetime.start.p0(i64 4, ptr %10) #6
  %11 = load ptr, ptr %3, align 8, !tbaa !3
  %12 = load ptr, ptr %4, align 8, !tbaa !8
  %13 = call ptr @Cudd_Support(ptr noundef %11, ptr noundef %12)
  store ptr %13, ptr %6, align 8, !tbaa !8
  %14 = load ptr, ptr %6, align 8, !tbaa !8
  call void @Cudd_Ref(ptr noundef %14)
  %15 = load ptr, ptr %3, align 8, !tbaa !3
  %16 = load ptr, ptr %6, align 8, !tbaa !8
  %17 = call i32 @Extra_bddSuppSize(ptr noundef %15, ptr noundef %16)
  store i32 %17, ptr %5, align 4, !tbaa !31
  %18 = load i32, ptr %5, align 4, !tbaa !31
  %19 = call ptr @Extra_UnateInfoAllocate(i32 noundef %18)
  store ptr %19, ptr %8, align 8, !tbaa !10
  %20 = load ptr, ptr %3, align 8, !tbaa !3
  %21 = getelementptr inbounds nuw %struct.DdManager, ptr %20, i32 0, i32 15
  %22 = load i32, ptr %21, align 8, !tbaa !32
  %23 = load ptr, ptr %8, align 8, !tbaa !10
  %24 = getelementptr inbounds nuw %struct.Extra_UnateInfo_t_, ptr %23, i32 0, i32 1
  store i32 %22, ptr %24, align 4, !tbaa !34
  store i32 0, ptr %9, align 4, !tbaa !31
  %25 = load ptr, ptr %6, align 8, !tbaa !8
  store ptr %25, ptr %7, align 8, !tbaa !8
  br label %26

26:                                               ; preds = %86, %2
  %27 = load ptr, ptr %7, align 8, !tbaa !8
  %28 = load ptr, ptr %3, align 8, !tbaa !3
  %29 = getelementptr inbounds nuw %struct.DdManager, ptr %28, i32 0, i32 1
  %30 = load ptr, ptr %29, align 8, !tbaa !37
  %31 = icmp ne ptr %27, %30
  br i1 %31, label %32, label %93

32:                                               ; preds = %26
  %33 = load ptr, ptr %3, align 8, !tbaa !3
  %34 = load ptr, ptr %4, align 8, !tbaa !8
  %35 = load ptr, ptr %7, align 8, !tbaa !8
  %36 = getelementptr inbounds nuw %struct.DdNode, ptr %35, i32 0, i32 0
  %37 = load i32, ptr %36, align 8, !tbaa !38
  %38 = call i32 @Extra_bddCheckUnateNaive(ptr noundef %33, ptr noundef %34, i32 noundef %37)
  store i32 %38, ptr %10, align 4, !tbaa !31
  %39 = load ptr, ptr %7, align 8, !tbaa !8
  %40 = getelementptr inbounds nuw %struct.DdNode, ptr %39, i32 0, i32 0
  %41 = load i32, ptr %40, align 8, !tbaa !38
  %42 = load ptr, ptr %8, align 8, !tbaa !10
  %43 = getelementptr inbounds nuw %struct.Extra_UnateInfo_t_, ptr %42, i32 0, i32 3
  %44 = load ptr, ptr %43, align 8, !tbaa !39
  %45 = load i32, ptr %9, align 4, !tbaa !31
  %46 = sext i32 %45 to i64
  %47 = getelementptr inbounds %struct.Extra_UnateVar_t_, ptr %44, i64 %46
  %48 = load i32, ptr %47, align 4
  %49 = and i32 %41, 1073741823
  %50 = and i32 %48, -1073741824
  %51 = or i32 %50, %49
  store i32 %51, ptr %47, align 4
  %52 = load i32, ptr %10, align 4, !tbaa !31
  %53 = icmp eq i32 %52, -1
  br i1 %53, label %54, label %64

54:                                               ; preds = %32
  %55 = load ptr, ptr %8, align 8, !tbaa !10
  %56 = getelementptr inbounds nuw %struct.Extra_UnateInfo_t_, ptr %55, i32 0, i32 3
  %57 = load ptr, ptr %56, align 8, !tbaa !39
  %58 = load i32, ptr %9, align 4, !tbaa !31
  %59 = sext i32 %58 to i64
  %60 = getelementptr inbounds %struct.Extra_UnateVar_t_, ptr %57, i64 %59
  %61 = load i32, ptr %60, align 4
  %62 = and i32 %61, 2147483647
  %63 = or i32 %62, -2147483648
  store i32 %63, ptr %60, align 4
  br label %78

64:                                               ; preds = %32
  %65 = load i32, ptr %10, align 4, !tbaa !31
  %66 = icmp eq i32 %65, 1
  br i1 %66, label %67, label %77

67:                                               ; preds = %64
  %68 = load ptr, ptr %8, align 8, !tbaa !10
  %69 = getelementptr inbounds nuw %struct.Extra_UnateInfo_t_, ptr %68, i32 0, i32 3
  %70 = load ptr, ptr %69, align 8, !tbaa !39
  %71 = load i32, ptr %9, align 4, !tbaa !31
  %72 = sext i32 %71 to i64
  %73 = getelementptr inbounds %struct.Extra_UnateVar_t_, ptr %70, i64 %72
  %74 = load i32, ptr %73, align 4
  %75 = and i32 %74, -1073741825
  %76 = or i32 %75, 1073741824
  store i32 %76, ptr %73, align 4
  br label %77

77:                                               ; preds = %67, %64
  br label %78

78:                                               ; preds = %77, %54
  %79 = load i32, ptr %10, align 4, !tbaa !31
  %80 = icmp ne i32 %79, 0
  %81 = zext i1 %80 to i32
  %82 = load ptr, ptr %8, align 8, !tbaa !10
  %83 = getelementptr inbounds nuw %struct.Extra_UnateInfo_t_, ptr %82, i32 0, i32 2
  %84 = load i32, ptr %83, align 8, !tbaa !43
  %85 = add nsw i32 %84, %81
  store i32 %85, ptr %83, align 8, !tbaa !43
  br label %86

86:                                               ; preds = %78
  %87 = load ptr, ptr %7, align 8, !tbaa !8
  %88 = getelementptr inbounds nuw %struct.DdNode, ptr %87, i32 0, i32 3
  %89 = getelementptr inbounds nuw %struct.DdChildren, ptr %88, i32 0, i32 0
  %90 = load ptr, ptr %89, align 8, !tbaa !40
  store ptr %90, ptr %7, align 8, !tbaa !8
  %91 = load i32, ptr %9, align 4, !tbaa !31
  %92 = add nsw i32 %91, 1
  store i32 %92, ptr %9, align 4, !tbaa !31
  br label %26, !llvm.loop !53

93:                                               ; preds = %26
  %94 = load ptr, ptr %3, align 8, !tbaa !3
  %95 = load ptr, ptr %6, align 8, !tbaa !8
  call void @Cudd_RecursiveDeref(ptr noundef %94, ptr noundef %95)
  %96 = load ptr, ptr %8, align 8, !tbaa !10
  call void @llvm.lifetime.end.p0(i64 4, ptr %10) #6
  call void @llvm.lifetime.end.p0(i64 4, ptr %9) #6
  call void @llvm.lifetime.end.p0(i64 8, ptr %8) #6
  call void @llvm.lifetime.end.p0(i64 8, ptr %7) #6
  call void @llvm.lifetime.end.p0(i64 8, ptr %6) #6
  call void @llvm.lifetime.end.p0(i64 4, ptr %5) #6
  ret ptr %96
}