; Function Attrs: nounwind uwtable
define noalias noundef ptr @Extra_UnateComputeSlow(ptr noundef %0, ptr noundef %1) local_unnamed_addr #0 {
  %3 = tail call ptr @Cudd_Support(ptr noundef %0, ptr noundef %1) #9
  tail call void @Cudd_Ref(ptr noundef %3) #9
  %4 = tail call i32 @Extra_bddSuppSize(ptr noundef %0, ptr noundef %3) #9
  %calloc.i = tail call dereferenceable_or_null(24) ptr @calloc(i64 1, i64 24)
  store i32 %4, ptr %calloc.i, align 8, !tbaa !26
  %5 = sext i32 %4 to i64
  %6 = shl nsw i64 %5, 2
  %calloc7.i = tail call ptr @calloc(i64 1, i64 %6)
  %7 = getelementptr inbounds nuw i8, ptr %calloc.i, i64 16
  store ptr %calloc7.i, ptr %7, align 8, !tbaa !29
  %8 = getelementptr inbounds nuw i8, ptr %0, i64 136
  %9 = load i32, ptr %8, align 8, !tbaa !30
  %10 = getelementptr inbounds nuw i8, ptr %calloc.i, i64 4
  store i32 %9, ptr %10, align 4, !tbaa !31
  %11 = getelementptr inbounds nuw i8, ptr %0, i64 40
  %12 = load ptr, ptr %11, align 8, !tbaa !32
  %.not31 = icmp eq ptr %3, %12
  br i1 %.not31, label %._crit_edge, label %.lr.ph

.lr.ph:                                           ; preds = %2
  %13 = getelementptr inbounds nuw i8, ptr %calloc.i, i64 8
  br label %14

14:                                               ; preds = %.lr.ph, %26
  %15 = phi i32 [ 0, %.lr.ph ], [ %29, %26 ]
  %indvars.iv = phi i64 [ 0, %.lr.ph ], [ %indvars.iv.next, %26 ]
  %.033 = phi ptr [ %3, %.lr.ph ], [ %31, %26 ]
  %16 = load i32, ptr %.033, align 8, !tbaa !33
  %17 = tail call i32 @Extra_bddCheckUnateNaive(ptr noundef nonnull %0, ptr noundef %1, i32 noundef %16)
  %18 = load i32, ptr %.033, align 8, !tbaa !33
  %19 = getelementptr inbounds nuw %struct.Extra_UnateVar_t_, ptr %calloc7.i, i64 %indvars.iv
  %20 = load i32, ptr %19, align 4
  %21 = and i32 %18, 1073741823
  %22 = and i32 %20, -1073741824
  %23 = or disjoint i32 %22, %21
  store i32 %23, ptr %19, align 4
  switch i32 %17, label %26 [
    i32 -1, label %.sink.split
    i32 1, label %24
  ]

24:                                               ; preds = %14
  br label %.sink.split

.sink.split:                                      ; preds = %14, %24
  %.sink35 = phi i32 [ 1073741824, %24 ], [ -2147483648, %14 ]
  %25 = or i32 %23, %.sink35
  store i32 %25, ptr %19, align 4
  br label %26

26:                                               ; preds = %.sink.split, %14
  %27 = icmp ne i32 %17, 0
  %28 = zext i1 %27 to i32
  %29 = add nuw nsw i32 %15, %28
  store i32 %29, ptr %13, align 8, !tbaa !38
  %30 = getelementptr inbounds nuw i8, ptr %.033, i64 16
  %31 = load ptr, ptr %30, align 8, !tbaa !35
  %indvars.iv.next = add nuw nsw i64 %indvars.iv, 1
  %32 = load ptr, ptr %11, align 8, !tbaa !32
  %.not = icmp eq ptr %31, %32
  br i1 %.not, label %._crit_edge, label %14, !llvm.loop !46

._crit_edge:                                      ; preds = %26, %2
  tail call void @Cudd_RecursiveDeref(ptr noundef nonnull %0, ptr noundef %3) #9
  ret ptr %calloc.i
}